; Function Attrs: mustprogress uwtable
define noundef ptr @_ZN6icu_7513MeasureFormat20createCurrencyFormatER10UErrorCode(ptr noundef nonnull align 4 dereferenceable(4) %ec) local_unnamed_addr #1 align 2 personality ptr @__gxx_personality_v0 {
entry:
  %0 = load i32, ptr %ec, align 4
  %cmp.i = icmp slt i32 %0, 1
  br i1 %cmp.i, label %if.end, label %return

if.end:                                           ; preds = %entry
  %call1 = tail call noundef nonnull align 8 dereferenceable(217) ptr @_ZN6icu_756Locale10getDefaultEv()
  %1 = load i32, ptr %ec, align 4
  %cmp.i.i = icmp slt i32 %1, 1
  br i1 %cmp.i.i, label %if.end.i, label %return

if.end.i:                                         ; preds = %if.end
  %call1.i = tail call noundef ptr @_ZN6icu_757UMemorynwEm(i64 noundef 368) #16
  %new.isnull.i = icmp eq ptr %call1.i, null
  br i1 %new.isnull.i, label %new.cont.i, label %new.notnull.i

new.notnull.i:                                    ; preds = %if.end.i
  invoke void @_ZN6icu_7514CurrencyFormatC1ERKNS_6LocaleER10UErrorCode(ptr noundef nonnull align 8 dereferenceable(368) %call1.i, ptr noundef nonnull align 8 dereferenceable(217) %call1, ptr noundef nonnull align 4 dereferenceable(4) %ec)
          to label %return unwind label %lpad.i

new.cont.i:                                       ; preds = %if.end.i
  %2 = load i32, ptr %ec, align 4
  %cmp.i.i.i = icmp sgt i32 %2, 0
  br i1 %cmp.i.i.i, label %return, label %if.then.i.i

if.then.i.i:                                      ; preds = %new.cont.i
  store i32 7, ptr %ec, align 4
  br label %return

lpad.i:                                           ; preds = %new.notnull.i
  %3 = landingpad { ptr, i32 }
          cleanup
  tail call void @_ZN6icu_757UMemorydlEPv(ptr noundef nonnull %call1.i) #16
  resume { ptr, i32 } %3

return:                                           ; preds = %if.then.i.i, %new.cont.i, %new.notnull.i, %if.end, %entry
  %retval.0 = phi ptr [ null, %entry ], [ null, %if.end ], [ null, %new.cont.i ], [ null, %if.then.i.i ], [ %call1.i, %new.notnull.i ]
  ret ptr %retval.0
}